target datalayout = "e-m:e-p270:32:32-p271:32:32-p272:64:64-i64:64-i128:128-f80:128-n8:16:32:64-S128"
target triple = "x86_64-unknown-linux-gnu"

%"class.llvh::raw_fd_ostream" = type { %"class.llvh::raw_pwrite_stream.base", i32, i8, i8, %"class.std::error_code", i64 }
%"class.llvh::raw_pwrite_stream.base" = type { %"class.llvh::raw_ostream.base" }
%"class.llvh::raw_ostream.base" = type <{ ptr, ptr, ptr, ptr, i32 }>
%"class.std::error_code" = type { i32, ptr }
%"class.llvh::StringRef" = type { ptr, i64 }

@.str.1 = private unnamed_addr constant [2 x i8] c"-\00", align 1
@_ZZN4llvh4outsEvE1S = internal global %"class.llvh::raw_fd_ostream" zeroinitializer, align 8
@_ZGVZN4llvh4outsEvE1S = internal global i64 0, align 8
@__dso_handle = external hidden global i8
@_ZN4llvh14raw_fd_ostreamC1ENS_9StringRefERSt10error_codeNS_3sys2fs9OpenFlagsE = hidden unnamed_addr alias void (ptr, ptr, i64, ptr, i32), ptr @_ZN4llvh14raw_fd_ostreamC2ENS_9StringRefERSt10error_codeNS_3sys2fs9OpenFlagsE
@_ZN4llvh14raw_fd_ostreamD1Ev = hidden unnamed_addr alias void (ptr), ptr @_ZN4llvh14raw_fd_ostreamD2Ev

; Function Attrs: mustprogress nounwind uwtable
define linkonce_odr void @_ZNSt10error_codeC2Ev(ptr noundef nonnull align 8 dereferenceable(16) %this) unnamed_addr #0 comdat align 2 {
entry:
  %this.addr = alloca ptr, align 8
  store ptr %this, ptr %this.addr, align 8
  %this1 = load ptr, ptr %this.addr, align 8
  %_M_value = getelementptr inbounds %"class.std::error_code", ptr %this1, i32 0, i32 0
  store i32 0, ptr %_M_value, align 8
  %_M_cat = getelementptr inbounds %"class.std::error_code", ptr %this1, i32 0, i32 1
  %call = call noundef nonnull align 8 dereferenceable(8) ptr @_ZNSt3_V215system_categoryEv() #16
  store ptr %call, ptr %_M_cat, align 8
  ret void
}

; Function Attrs: mustprogress nounwind uwtable
define hidden noundef nonnull align 8 dereferenceable(36) ptr @_ZN4llvh4outsEv() #0 {
entry:
  %this.addr.i = alloca ptr, align 8
  %Str.addr.i = alloca ptr, align 8
  %EC = alloca %"class.std::error_code", align 8
  %agg.tmp = alloca %"class.llvh::StringRef", align 8
  call void @_ZNSt10error_codeC2Ev(ptr noundef nonnull align 8 dereferenceable(16) %EC) #9
  %0 = load atomic i8, ptr @_ZGVZN4llvh4outsEvE1S acquire, align 8
  %guard.uninitialized = icmp eq i8 %0, 0
  br i1 %guard.uninitialized, label %init.check, label %init.end, !prof !13

init.check:                                       ; preds = %entry
  %1 = call i32 @__cxa_guard_acquire(ptr @_ZGVZN4llvh4outsEvE1S) #9
  %tobool = icmp ne i32 %1, 0
  br i1 %tobool, label %init, label %init.end

init:                                             ; preds = %init.check
  store ptr %agg.tmp, ptr %this.addr.i, align 8
  store ptr @.str.1, ptr %Str.addr.i, align 8
  %this1.i = load ptr, ptr %this.addr.i, align 8
  %2 = load ptr, ptr %Str.addr.i, align 8
  store ptr %2, ptr %this1.i, align 8
  %Length.i = getelementptr inbounds %"class.llvh::StringRef", ptr %this1.i, i32 0, i32 1
  %3 = load ptr, ptr %Str.addr.i, align 8
  %tobool.i = icmp ne ptr %3, null
  br i1 %tobool.i, label %cond.true.i, label %cond.false.i

cond.true.i:                                      ; preds = %init
  %4 = load ptr, ptr %Str.addr.i, align 8
  %call.i = call i64 @strlen(ptr noundef %4) #15
  br label %_ZN4llvh9StringRefC2EPKc.exit

cond.false.i:                                     ; preds = %init
  br label %_ZN4llvh9StringRefC2EPKc.exit

_ZN4llvh9StringRefC2EPKc.exit:                    ; preds = %cond.false.i, %cond.true.i
  %cond.i = phi i64 [ %call.i, %cond.true.i ], [ 0, %cond.false.i ]
  store i64 %cond.i, ptr %Length.i, align 8
  %5 = getelementptr inbounds { ptr, i64 }, ptr %agg.tmp, i32 0, i32 0
  %6 = load ptr, ptr %5, align 8
  %7 = getelementptr inbounds { ptr, i64 }, ptr %agg.tmp, i32 0, i32 1
  %8 = load i64, ptr %7, align 8
  call void @_ZN4llvh14raw_fd_ostreamC1ENS_9StringRefERSt10error_codeNS_3sys2fs9OpenFlagsE(ptr noundef nonnull align 8 dereferenceable(72) @_ZZN4llvh4outsEvE1S, ptr %6, i64 %8, ptr noundef nonnull align 8 dereferenceable(16) %EC, i32 noundef 0)
  %9 = call i32 @__cxa_atexit(ptr @_ZN4llvh14raw_fd_ostreamD1Ev, ptr @_ZZN4llvh4outsEvE1S, ptr @__dso_handle) #9
  call void @__cxa_guard_release(ptr @_ZGVZN4llvh4outsEvE1S) #9
  br label %init.end

init.end:                                         ; preds = %_ZN4llvh9StringRefC2EPKc.exit, %init.check, %entry
  ret ptr @_ZZN4llvh4outsEvE1S
}