; Function Attrs: mustprogress nounwind uwtable
define hidden noundef nonnull align 8 dereferenceable(36) ptr @_ZN4llvh4outsEv() local_unnamed_addr #0 {
entry:
  %EC = alloca %"class.std::error_code", align 8
  store i32 0, ptr %EC, align 8
  %_M_cat.i = getelementptr inbounds i8, ptr %EC, i64 8
  %call.i = tail call noundef nonnull align 8 dereferenceable(8) ptr @_ZNSt3_V215system_categoryEv() #28
  store ptr %call.i, ptr %_M_cat.i, align 8
  %0 = load atomic i8, ptr @_ZGVZN4llvh4outsEvE1S acquire, align 8
  %guard.uninitialized = icmp eq i8 %0, 0
  br i1 %guard.uninitialized, label %init.check, label %init.end, !prof !19

init.check:                                       ; preds = %entry
  %1 = tail call i32 @__cxa_guard_acquire(ptr nonnull @_ZGVZN4llvh4outsEvE1S) #26
  %tobool.not = icmp eq i32 %1, 0
  br i1 %tobool.not, label %init.end, label %_ZN4llvh9StringRefC2EPKc.exit

_ZN4llvh9StringRefC2EPKc.exit:                    ; preds = %init.check
  call void @_ZN4llvh14raw_fd_ostreamC2ENS_9StringRefERSt10error_codeNS_3sys2fs19CreationDispositionENS5_10FileAccessENS5_9OpenFlagsE(ptr noundef nonnull align 8 dereferenceable(72) @_ZZN4llvh4outsEvE1S, ptr nonnull @.str.1, i64 1, ptr noundef nonnull align 8 dereferenceable(16) %EC, i32 noundef 0, i32 noundef 2, i32 noundef 0)
  %2 = tail call i32 @__cxa_atexit(ptr nonnull @_ZN4llvh14raw_fd_ostreamD2Ev, ptr nonnull @_ZZN4llvh4outsEvE1S, ptr nonnull @__dso_handle) #26
  tail call void @__cxa_guard_release(ptr nonnull @_ZGVZN4llvh4outsEvE1S) #26
  br label %init.end

init.end:                                         ; preds = %_ZN4llvh9StringRefC2EPKc.exit, %init.check, %entry
  ret ptr @_ZZN4llvh4outsEvE1S
}